target datalayout = "e-m:e-p270:32:32-p271:32:32-p272:64:64-i64:64-i128:128-f80:128-n8:16:32:64-S128"
target triple = "x86_64-pc-linux-gnu"

%struct.Abc_Ntk_t_ = type { i32, i32, ptr, ptr, ptr, ptr, ptr, ptr, ptr, ptr, ptr, ptr, ptr, [11 x i32], i32, i32, i32, i32, ptr, i32, ptr, ptr, i32, i32, i32, double, i32, %struct.Vec_Int_t_, ptr, ptr, ptr, ptr, ptr, float, i32, ptr, ptr, ptr, ptr, ptr, ptr, ptr, ptr, ptr, ptr, ptr, ptr, ptr, ptr, ptr, ptr, ptr, ptr, ptr, ptr, ptr, ptr }
%struct.Vec_Int_t_ = type { i32, i32, ptr }

@.str.5 = private unnamed_addr constant [2 x i8] c"\0A\00", align 1
@.str.6 = private unnamed_addr constant [7 x i8] c".exdc\0A\00", align 1

; Function Attrs: inlinehint nounwind uwtable
define internal ptr @Abc_NtkExdc(ptr noundef %0) #4 {
  %2 = alloca ptr, align 8
  store ptr %0, ptr %2, align 8, !tbaa !3
  %3 = load ptr, ptr %2, align 8, !tbaa !3
  %4 = getelementptr inbounds nuw %struct.Abc_Ntk_t_, ptr %3, i32 0, i32 40
  %5 = load ptr, ptr %4, align 8, !tbaa !51
  ret ptr %5
}

; Function Attrs: nounwind uwtable
define void @Io_NtkEdgelistWrite_int(ptr noundef %0, ptr noundef %1, i32 noundef %2, i32 noundef %3, i32 noundef %4, i32 noundef %5) #0 {
  %7 = alloca ptr, align 8
  %8 = alloca ptr, align 8
  %9 = alloca i32, align 4
  %10 = alloca i32, align 4
  %11 = alloca i32, align 4
  %12 = alloca i32, align 4
  %13 = alloca ptr, align 8
  store ptr %0, ptr %7, align 8, !tbaa !12
  store ptr %1, ptr %8, align 8, !tbaa !3
  store i32 %2, ptr %9, align 4, !tbaa !10
  store i32 %3, ptr %10, align 4, !tbaa !10
  store i32 %4, ptr %11, align 4, !tbaa !10
  store i32 %5, ptr %12, align 4, !tbaa !10
  call void @llvm.lifetime.start.p0(i64 8, ptr %13) #8
  %14 = load ptr, ptr %7, align 8, !tbaa !12
  %15 = load ptr, ptr %8, align 8, !tbaa !3
  %16 = load i32, ptr %9, align 4, !tbaa !10
  %17 = load i32, ptr %10, align 4, !tbaa !10
  %18 = load i32, ptr %11, align 4, !tbaa !10
  %19 = load i32, ptr %12, align 4, !tbaa !10
  call void @Io_NtkEdgelistWriteOne(ptr noundef %14, ptr noundef %15, i32 noundef %16, i32 noundef %17, i32 noundef %18, i32 noundef %19)
  %20 = load ptr, ptr %8, align 8, !tbaa !3
  %21 = call ptr @Abc_NtkExdc(ptr noundef %20)
  store ptr %21, ptr %13, align 8, !tbaa !3
  %22 = load ptr, ptr %13, align 8, !tbaa !3
  %23 = icmp ne ptr %22, null
  br i1 %23, label %24, label %35

24:                                               ; preds = %6
  %25 = load ptr, ptr %7, align 8, !tbaa !12
  %26 = call i32 (ptr, ptr, ...) @fprintf(ptr noundef %25, ptr noundef @.str.5) #8
  %27 = load ptr, ptr %7, align 8, !tbaa !12
  %28 = call i32 (ptr, ptr, ...) @fprintf(ptr noundef %27, ptr noundef @.str.6) #8
  %29 = load ptr, ptr %7, align 8, !tbaa !12
  %30 = load ptr, ptr %13, align 8, !tbaa !3
  %31 = load i32, ptr %9, align 4, !tbaa !10
  %32 = load i32, ptr %10, align 4, !tbaa !10
  %33 = load i32, ptr %11, align 4, !tbaa !10
  %34 = load i32, ptr %12, align 4, !tbaa !10
  call void @Io_NtkEdgelistWriteOne(ptr noundef %29, ptr noundef %30, i32 noundef %31, i32 noundef %32, i32 noundef %33, i32 noundef %34)
  br label %35

35:                                               ; preds = %24, %6
  call void @llvm.lifetime.end.p0(i64 8, ptr %13) #8
  ret void
}