; Function Attrs: nounwind uwtable
define void @Io_NtkEdgelistWrite_int(ptr noundef %0, ptr noundef %1, i32 noundef %2, i32 noundef %3, i32 noundef %4, i32 noundef %5) local_unnamed_addr #0 {
  tail call fastcc void @Io_NtkEdgelistWriteOne(ptr noundef %0, ptr noundef %1, i32 noundef %2, i32 noundef %3, i32 noundef %4, i32 noundef %5)
  %7 = getelementptr i8, ptr %1, i64 328
  %.val = load ptr, ptr %7, align 8, !tbaa !38
  %.not = icmp eq ptr %.val, null
  br i1 %.not, label %10, label %8

8:                                                ; preds = %6
  %fputc = tail call i32 @fputc(i32 10, ptr %0)
  %9 = tail call i64 @fwrite(ptr nonnull @.str.6, i64 6, i64 1, ptr %0)
  tail call fastcc void @Io_NtkEdgelistWriteOne(ptr noundef %0, ptr noundef nonnull %.val, i32 noundef %2, i32 noundef %3, i32 noundef %4, i32 noundef %5)
  br label %10

10:                                               ; preds = %8, %6
  ret void
}